target datalayout = "e-m:e-p270:32:32-p271:32:32-p272:64:64-i64:64-i128:128-f80:128-n8:16:32:64-S128"
target triple = "x86_64-pc-linux-gnu"

%struct.Hop_Obj_t_ = type { %union.anon, %union.anon.0, ptr, ptr, i32, i32 }
%union.anon = type { ptr }
%union.anon.0 = type { ptr }

@.str.17 = private unnamed_addr constant [11 x i8] c"Node %p : \00", align 1
@.str.18 = private unnamed_addr constant [11 x i8] c"constant 1\00", align 1
@.str.19 = private unnamed_addr constant [3 x i8] c"PI\00", align 1
@.str.20 = private unnamed_addr constant [18 x i8] c"AND( %p%s, %p%s )\00", align 1
@.str.21 = private unnamed_addr constant [2 x i8] c"'\00", align 1
@.str.22 = private unnamed_addr constant [2 x i8] c" \00", align 1
@.str.23 = private unnamed_addr constant [14 x i8] c" (refs = %3d)\00", align 1

; Function Attrs: inlinehint nounwind uwtable
define internal i32 @Hop_IsComplement(ptr noundef %0) #2 {
  %2 = alloca ptr, align 8
  store ptr %0, ptr %2, align 8, !tbaa !19
  %3 = load ptr, ptr %2, align 8, !tbaa !19
  %4 = ptrtoint ptr %3 to i64
  %5 = and i64 %4, 1
  %6 = trunc i64 %5 to i32
  ret i32 %6
}

; Function Attrs: inlinehint nounwind uwtable
define internal ptr @Hop_Regular(ptr noundef %0) #2 {
  %2 = alloca ptr, align 8
  store ptr %0, ptr %2, align 8, !tbaa !19
  %3 = load ptr, ptr %2, align 8, !tbaa !19
  %4 = ptrtoint ptr %3 to i64
  %5 = and i64 %4, -2
  %6 = inttoptr i64 %5 to ptr
  ret ptr %6
}

; Function Attrs: inlinehint nounwind uwtable
define internal i32 @Hop_ObjRefs(ptr noundef %0) #2 {
  %2 = alloca ptr, align 8
  store ptr %0, ptr %2, align 8, !tbaa !19
  %3 = load ptr, ptr %2, align 8, !tbaa !19
  %4 = getelementptr inbounds nuw %struct.Hop_Obj_t_, ptr %3, i32 0, i32 4
  %5 = load i32, ptr %4, align 8
  %6 = lshr i32 %5, 6
  ret i32 %6
}

; Function Attrs: inlinehint nounwind uwtable
define internal i32 @Hop_ObjFaninC1(ptr noundef %0) #2 {
  %2 = alloca ptr, align 8
  store ptr %0, ptr %2, align 8, !tbaa !19
  %3 = load ptr, ptr %2, align 8, !tbaa !19
  %4 = getelementptr inbounds nuw %struct.Hop_Obj_t_, ptr %3, i32 0, i32 3
  %5 = load ptr, ptr %4, align 8, !tbaa !34
  %6 = call i32 @Hop_IsComplement(ptr noundef %5)
  ret i32 %6
}

; Function Attrs: inlinehint nounwind uwtable
define internal ptr @Hop_ObjFanin1(ptr noundef %0) #2 {
  %2 = alloca ptr, align 8
  store ptr %0, ptr %2, align 8, !tbaa !19
  %3 = load ptr, ptr %2, align 8, !tbaa !19
  %4 = getelementptr inbounds nuw %struct.Hop_Obj_t_, ptr %3, i32 0, i32 3
  %5 = load ptr, ptr %4, align 8, !tbaa !34
  %6 = call ptr @Hop_Regular(ptr noundef %5)
  ret ptr %6
}

; Function Attrs: inlinehint nounwind uwtable
define internal i32 @Hop_ObjFaninC0(ptr noundef %0) #2 {
  %2 = alloca ptr, align 8
  store ptr %0, ptr %2, align 8, !tbaa !19
  %3 = load ptr, ptr %2, align 8, !tbaa !19
  %4 = getelementptr inbounds nuw %struct.Hop_Obj_t_, ptr %3, i32 0, i32 2
  %5 = load ptr, ptr %4, align 8, !tbaa !33
  %6 = call i32 @Hop_IsComplement(ptr noundef %5)
  ret i32 %6
}

; Function Attrs: inlinehint nounwind uwtable
define internal ptr @Hop_ObjFanin0(ptr noundef %0) #2 {
  %2 = alloca ptr, align 8
  store ptr %0, ptr %2, align 8, !tbaa !19
  %3 = load ptr, ptr %2, align 8, !tbaa !19
  %4 = getelementptr inbounds nuw %struct.Hop_Obj_t_, ptr %3, i32 0, i32 2
  %5 = load ptr, ptr %4, align 8, !tbaa !33
  %6 = call ptr @Hop_Regular(ptr noundef %5)
  ret ptr %6
}

; Function Attrs: inlinehint nounwind uwtable
define internal i32 @Hop_ObjIsPi(ptr noundef %0) #2 {
  %2 = alloca ptr, align 8
  store ptr %0, ptr %2, align 8, !tbaa !19
  %3 = load ptr, ptr %2, align 8, !tbaa !19
  %4 = getelementptr inbounds nuw %struct.Hop_Obj_t_, ptr %3, i32 0, i32 4
  %5 = load i32, ptr %4, align 8
  %6 = and i32 %5, 7
  %7 = icmp eq i32 %6, 2
  %8 = zext i1 %7 to i32
  ret i32 %8
}

; Function Attrs: inlinehint nounwind uwtable
define internal i32 @Hop_ObjIsConst1(ptr noundef %0) #2 {
  %2 = alloca ptr, align 8
  store ptr %0, ptr %2, align 8, !tbaa !19
  %3 = load ptr, ptr %2, align 8, !tbaa !19
  %4 = getelementptr inbounds nuw %struct.Hop_Obj_t_, ptr %3, i32 0, i32 4
  %5 = load i32, ptr %4, align 8
  %6 = and i32 %5, 7
  %7 = icmp eq i32 %6, 1
  %8 = zext i1 %7 to i32
  ret i32 %8
}

; Function Attrs: nounwind uwtable
define void @Hop_ObjPrintVerbose(ptr noundef %0, i32 noundef %1) #0 {
  %3 = alloca ptr, align 8
  %4 = alloca i32, align 4
  store ptr %0, ptr %3, align 8, !tbaa !19
  store i32 %1, ptr %4, align 4, !tbaa !17
  %5 = load ptr, ptr %3, align 8, !tbaa !19
  %6 = call i32 (ptr, ...) @printf(ptr noundef @.str.17, ptr noundef %5)
  %7 = load ptr, ptr %3, align 8, !tbaa !19
  %8 = call i32 @Hop_ObjIsConst1(ptr noundef %7)
  %9 = icmp ne i32 %8, 0
  br i1 %9, label %10, label %12

10:                                               ; preds = %2
  %11 = call i32 (ptr, ...) @printf(ptr noundef @.str.18)
  br label %33

12:                                               ; preds = %2
  %13 = load ptr, ptr %3, align 8, !tbaa !19
  %14 = call i32 @Hop_ObjIsPi(ptr noundef %13)
  %15 = icmp ne i32 %14, 0
  br i1 %15, label %16, label %18

16:                                               ; preds = %12
  %17 = call i32 (ptr, ...) @printf(ptr noundef @.str.19)
  br label %32

18:                                               ; preds = %12
  %19 = load ptr, ptr %3, align 8, !tbaa !19
  %20 = call ptr @Hop_ObjFanin0(ptr noundef %19)
  %21 = load ptr, ptr %3, align 8, !tbaa !19
  %22 = call i32 @Hop_ObjFaninC0(ptr noundef %21)
  %23 = icmp ne i32 %22, 0
  %24 = select i1 %23, ptr @.str.21, ptr @.str.22
  %25 = load ptr, ptr %3, align 8, !tbaa !19
  %26 = call ptr @Hop_ObjFanin1(ptr noundef %25)
  %27 = load ptr, ptr %3, align 8, !tbaa !19
  %28 = call i32 @Hop_ObjFaninC1(ptr noundef %27)
  %29 = icmp ne i32 %28, 0
  %30 = select i1 %29, ptr @.str.21, ptr @.str.22
  %31 = call i32 (ptr, ...) @printf(ptr noundef @.str.20, ptr noundef %20, ptr noundef %24, ptr noundef %26, ptr noundef %30)
  br label %32

32:                                               ; preds = %18, %16
  br label %33

33:                                               ; preds = %32, %10
  %34 = load ptr, ptr %3, align 8, !tbaa !19
  %35 = call i32 @Hop_ObjRefs(ptr noundef %34)
  %36 = call i32 (ptr, ...) @printf(ptr noundef @.str.23, i32 noundef %35)
  ret void
}