; Function Attrs: nofree nounwind uwtable
define void @Hop_ObjPrintVerbose(ptr noundef %0, i32 %1) local_unnamed_addr #7 {
  %3 = tail call i32 (ptr, ...) @printf(ptr noundef nonnull dereferenceable(1) @.str.17, ptr noundef %0)
  %4 = getelementptr i8, ptr %0, i64 32
  %.val15 = load i32, ptr %4, align 8
  %5 = and i32 %.val15, 7
  switch i32 %5, label %10 [
    i32 1, label %6
    i32 2, label %8
  ]

6:                                                ; preds = %2
  %7 = tail call i32 (ptr, ...) @printf(ptr noundef nonnull dereferenceable(1) @.str.18)
  br label %24

8:                                                ; preds = %2
  %9 = tail call i32 (ptr, ...) @printf(ptr noundef nonnull dereferenceable(1) @.str.19)
  br label %24

10:                                               ; preds = %2
  %11 = getelementptr i8, ptr %0, i64 16
  %.val = load ptr, ptr %11, align 8, !tbaa !29
  %12 = ptrtoint ptr %.val to i64
  %13 = and i64 %12, -2
  %14 = inttoptr i64 %13 to ptr
  %15 = and i64 %12, 1
  %.not9 = icmp eq i64 %15, 0
  %16 = select i1 %.not9, ptr @.str.22, ptr @.str.21
  %17 = getelementptr i8, ptr %0, i64 24
  %.val11 = load ptr, ptr %17, align 8, !tbaa !30
  %18 = ptrtoint ptr %.val11 to i64
  %19 = and i64 %18, -2
  %20 = inttoptr i64 %19 to ptr
  %21 = and i64 %18, 1
  %.not10 = icmp eq i64 %21, 0
  %22 = select i1 %.not10, ptr @.str.22, ptr @.str.21
  %23 = tail call i32 (ptr, ...) @printf(ptr noundef nonnull dereferenceable(1) @.str.20, ptr noundef %14, ptr noundef nonnull %16, ptr noundef %20, ptr noundef nonnull %22)
  br label %24

24:                                               ; preds = %8, %10, %6
  %.val16 = load i32, ptr %4, align 8
  %25 = lshr i32 %.val16, 6
  %26 = tail call i32 (ptr, ...) @printf(ptr noundef nonnull dereferenceable(1) @.str.23, i32 noundef %25)
  ret void
}